target datalayout = "e-m:e-p270:32:32-p271:32:32-p272:64:64-i64:64-i128:128-f80:128-n8:16:32:64-S128"
target triple = "x86_64-pc-linux-gnu"

%struct.redisServer = type { i32, i64, ptr, ptr, ptr, i32, i32, i32, i32, i32, ptr, ptr, ptr, ptr, ptr, i32, i32, i32, i32, i64, i32, i32, i32, i32, ptr, i32, i32, [41 x i8], i32, i64, i32, i32, i32, ptr, ptr, i32, i32, i64, ptr, ptr, ptr, ptr, [2 x i32], i32, i32, i32, i32, i32, i32, [16 x ptr], i32, ptr, ptr, i32, [8 x %struct.connListener], i32, %struct.connListener, ptr, ptr, ptr, ptr, ptr, ptr, ptr, ptr, ptr, ptr, i32, ptr, i32, ptr, [3 x %struct.pause_event], [256 x i8], ptr, i64, i32, i32, [128 x i32], i32, i32, i64, i32, i32, i32, i32, i32, i64, i64, i64, i64, i64, i64, i64, i64, i64, i64, double, i64, i64, i64, i64, i64, i64, i64, i64, i64, i64, i64, i64, i64, i64, i64, i64, i64, i64, i64, i64, i64, double, i64, i64, i64, i64, i64, ptr, i64, i64, i64, %struct.malloc_stats, i64, i64, i64, i64, i64, i64, i64, i64, i64, i64, i64, i64, double, [4 x i64], i64, i64, i64, i64, [128 x i64], [128 x i64], i64, i64, [7 x %struct.anon], i64, i64, i64, i64, i64, i64, [4 x %struct.durationStats], i32, i32, i32, i32, i32, i32, i32, i32, i32, i32, i32, i32, i64, i32, i32, i32, i32, i64, i64, i32, i32, i32, i32, i32, ptr, [3 x %struct.clientBufferLimitsConfig], i32, i32, i32, ptr, i32, i32, i32, i32, i32, i32, ptr, ptr, i32, i32, i64, i64, i64, i64, i64, i32, i32, ptr, i32, i32, i64, i64, i64, i64, i64, i32, i32, i64, i32, i32, i32, i32, i32, i32, i32, i32, ptr, i32, i64, i64, i64, i64, i32, ptr, i32, ptr, i32, i32, i32, i64, i64, i64, i64, i32, i32, i32, i32, i32, i32, ptr, i32, i32, ptr, i32, i32, i32, [2 x i32], i32, %struct.redisOpArray, i32, ptr, i32, ptr, i32, i32, i32, i32, i32, i32, i32, [41 x i8], [41 x i8], i64, i64, i64, i64, i32, i32, ptr, i64, i64, %struct.replDataBuf, i64, i64, i32, i32, i32, i32, i32, i32, i32, i32, i32, i64, ptr, i64, ptr, ptr, ptr, i32, i32, ptr, ptr, i32, i32, i32, i64, i64, i64, i64, ptr, ptr, i32, ptr, i64, i32, i32, i32, i64, i32, i32, i32, i32, ptr, i32, i32, [41 x i8], i64, i32, ptr, i32, i32, i64, i64, i32, i32, i32, i32, i32, i64, [3 x i32], i32, i32, i32, [10 x i32], ptr, ptr, i32, i64, ptr, ptr, i32, i32, i32, i32, i64, i64, i64, i64, i64, i64, i64, i64, i64, i64, i32, i32, i64, i64, i32, i64, i64, i64, i64, i64, ptr, ptr, i32, ptr, i32, i32, i32, i32, i64, i64, ptr, ptr, i32, i32, i32, i32, i32, ptr, ptr, ptr, i32, i32, i32, i32, i32, i32, i32, i64, i32, i32, i64, i32, i32, i32, i32, i32, i32, i32, i64, ptr, ptr, i64, ptr, i32, %struct.aclInfo, i32, i64, i32, i32, i32, %struct.redisTLSContextConfig, ptr, ptr, ptr, ptr, ptr, i64, i32, ptr, i32, i32, i32, i64, i32, ptr }
%struct.connListener = type { [16 x i32], i32, ptr, i32, i32, ptr, ptr }
%struct.pause_event = type { i32, i64 }
%struct.malloc_stats = type { i64, i64, i64, i64, i64, i64, i64, i64, i64, i64, i64 }
%struct.anon = type { i64, i64, [16 x i64], i32 }
%struct.durationStats = type { i64, i64, i64 }
%struct.clientBufferLimitsConfig = type { i64, i64, i64 }
%struct.redisOpArray = type { ptr, i32, i32 }
%struct.replDataBuf = type { ptr, i64, i64, i64, i64 }
%struct.aclInfo = type { i64, i64, i64, i64 }
%struct.redisTLSContextConfig = type { ptr, ptr, ptr, ptr, ptr, ptr, ptr, ptr, ptr, ptr, ptr, ptr, i32, i32, i32, i32 }
%struct.sdshdr8 = type { i8, i8, i8, [0 x i8] }
%struct.sdshdr16 = type <{ i16, i16, i8, [0 x i8] }>
%struct.sdshdr32 = type <{ i32, i32, i8, [0 x i8] }>
%struct.sdshdr64 = type <{ i64, i64, i8, [0 x i8] }>
%struct.redisDb = type { ptr, ptr, ptr, ptr, ptr, ptr, ptr, i32, i64, i64, ptr }
%struct.dict = type { ptr, [2 x ptr], [2 x i64], i64, i16, [2 x i8], i16, [0 x ptr] }

@server = external global %struct.redisServer, align 8
@slaveKeysWithExpire = dso_local global ptr null, align 8

; Function Attrs: inlinehint nounwind uwtable
define internal i64 @sdslen(ptr noundef %0) #3 {
  %2 = alloca i64, align 8
  %3 = alloca ptr, align 8
  %4 = alloca i8, align 1
  %5 = alloca i32, align 4
  store ptr %0, ptr %3, align 8, !tbaa !14
  call void @llvm.lifetime.start.p0(i64 1, ptr %4) #8
  %6 = load ptr, ptr %3, align 8, !tbaa !14
  %7 = getelementptr inbounds i8, ptr %6, i64 -1
  %8 = load i8, ptr %7, align 1, !tbaa !18
  store i8 %8, ptr %4, align 1, !tbaa !18
  %9 = load i8, ptr %4, align 1, !tbaa !18
  %10 = zext i8 %9 to i32
  %11 = and i32 %10, 7
  switch i32 %11, label %40 [
    i32 0, label %12
    i32 1, label %17
    i32 2, label %23
    i32 3, label %29
    i32 4, label %35
  ]

12:                                               ; preds = %1
  %13 = load i8, ptr %4, align 1, !tbaa !18
  %14 = zext i8 %13 to i32
  %15 = ashr i32 %14, 3
  %16 = sext i32 %15 to i64
  store i64 %16, ptr %2, align 8
  store i32 1, ptr %5, align 4
  br label %41

17:                                               ; preds = %1
  %18 = load ptr, ptr %3, align 8, !tbaa !14
  %19 = getelementptr inbounds i8, ptr %18, i64 -3
  %20 = getelementptr inbounds nuw %struct.sdshdr8, ptr %19, i32 0, i32 0
  %21 = load i8, ptr %20, align 1, !tbaa !18
  %22 = zext i8 %21 to i64
  store i64 %22, ptr %2, align 8
  store i32 1, ptr %5, align 4
  br label %41

23:                                               ; preds = %1
  %24 = load ptr, ptr %3, align 8, !tbaa !14
  %25 = getelementptr inbounds i8, ptr %24, i64 -5
  %26 = getelementptr inbounds nuw %struct.sdshdr16, ptr %25, i32 0, i32 0
  %27 = load i16, ptr %26, align 1, !tbaa !19
  %28 = zext i16 %27 to i64
  store i64 %28, ptr %2, align 8
  store i32 1, ptr %5, align 4
  br label %41

29:                                               ; preds = %1
  %30 = load ptr, ptr %3, align 8, !tbaa !14
  %31 = getelementptr inbounds i8, ptr %30, i64 -9
  %32 = getelementptr inbounds nuw %struct.sdshdr32, ptr %31, i32 0, i32 0
  %33 = load i32, ptr %32, align 1, !tbaa !21
  %34 = zext i32 %33 to i64
  store i64 %34, ptr %2, align 8
  store i32 1, ptr %5, align 4
  br label %41

35:                                               ; preds = %1
  %36 = load ptr, ptr %3, align 8, !tbaa !14
  %37 = getelementptr inbounds i8, ptr %36, i64 -17
  %38 = getelementptr inbounds nuw %struct.sdshdr64, ptr %37, i32 0, i32 0
  %39 = load i64, ptr %38, align 1, !tbaa !23
  store i64 %39, ptr %2, align 8
  store i32 1, ptr %5, align 4
  br label %41

40:                                               ; preds = %1
  store i64 0, ptr %2, align 8
  store i32 1, ptr %5, align 4
  br label %41

41:                                               ; preds = %40, %35, %29, %23, %17, %12
  call void @llvm.lifetime.end.p0(i64 1, ptr %4) #8
  %42 = load i64, ptr %2, align 8
  ret i64 %42
}

; Function Attrs: nounwind uwtable
define dso_local i32 @activeExpireCycleTryExpire(ptr noundef %0, ptr noundef %1, i64 noundef %2) #0 {
  %4 = alloca i32, align 4
  %5 = alloca ptr, align 8
  %6 = alloca ptr, align 8
  %7 = alloca i64, align 8
  %8 = alloca i64, align 8
  %9 = alloca i32, align 4
  %10 = alloca ptr, align 8
  %11 = alloca ptr, align 8
  store ptr %0, ptr %5, align 8, !tbaa !5
  store ptr %1, ptr %6, align 8, !tbaa !10
  store i64 %2, ptr %7, align 8, !tbaa !12
  call void @llvm.lifetime.start.p0(i64 8, ptr %8) #8
  %12 = load ptr, ptr %6, align 8, !tbaa !10
  %13 = call i64 @dictGetSignedIntegerVal(ptr noundef %12)
  store i64 %13, ptr %8, align 8, !tbaa !12
  %14 = load i64, ptr %7, align 8, !tbaa !12
  %15 = load i64, ptr %8, align 8, !tbaa !12
  %16 = icmp slt i64 %14, %15
  br i1 %16, label %17, label %18

17:                                               ; preds = %3
  store i32 0, ptr %4, align 4
  store i32 1, ptr %9, align 4
  br label %28

18:                                               ; preds = %3
  call void @enterExecutionUnit(i32 noundef 1, i64 noundef 0)
  call void @llvm.lifetime.start.p0(i64 8, ptr %10) #8
  %19 = load ptr, ptr %6, align 8, !tbaa !10
  %20 = call ptr @dictGetKey(ptr noundef %19)
  store ptr %20, ptr %10, align 8, !tbaa !14
  call void @llvm.lifetime.start.p0(i64 8, ptr %11) #8
  %21 = load ptr, ptr %10, align 8, !tbaa !14
  %22 = load ptr, ptr %10, align 8, !tbaa !14
  %23 = call i64 @sdslen(ptr noundef %22)
  %24 = call ptr @createStringObject(ptr noundef %21, i64 noundef %23)
  store ptr %24, ptr %11, align 8, !tbaa !16
  %25 = load ptr, ptr %5, align 8, !tbaa !5
  %26 = load ptr, ptr %11, align 8, !tbaa !16
  call void @deleteExpiredKeyAndPropagate(ptr noundef %25, ptr noundef %26)
  %27 = load ptr, ptr %11, align 8, !tbaa !16
  call void @decrRefCount(ptr noundef %27)
  call void @exitExecutionUnit()
  call void @postExecutionUnitOperations()
  store i32 1, ptr %4, align 4
  store i32 1, ptr %9, align 4
  call void @llvm.lifetime.end.p0(i64 8, ptr %11) #8
  call void @llvm.lifetime.end.p0(i64 8, ptr %10) #8
  br label %28

28:                                               ; preds = %18, %17
  call void @llvm.lifetime.end.p0(i64 8, ptr %8) #8
  %29 = load i32, ptr %4, align 4
  ret i32 %29
}

; Function Attrs: nounwind uwtable
define dso_local void @expireSlaveKeys() #0 {
  %1 = alloca i32, align 4
  %2 = alloca i32, align 4
  %3 = alloca i64, align 8
  %4 = alloca ptr, align 8
  %5 = alloca ptr, align 8
  %6 = alloca i64, align 8
  %7 = alloca i64, align 8
  %8 = alloca i32, align 4
  %9 = alloca ptr, align 8
  %10 = alloca ptr, align 8
  %11 = alloca i32, align 4
  %12 = alloca i32, align 4
  %13 = load ptr, ptr @slaveKeysWithExpire, align 8, !tbaa !76
  %14 = icmp eq ptr %13, null
  br i1 %14, label %26, label %15

15:                                               ; preds = %0
  %16 = load ptr, ptr @slaveKeysWithExpire, align 8, !tbaa !76
  %17 = getelementptr inbounds nuw %struct.dict, ptr %16, i32 0, i32 2
  %18 = getelementptr inbounds [2 x i64], ptr %17, i64 0, i64 0
  %19 = load i64, ptr %18, align 8, !tbaa !23
  %20 = load ptr, ptr @slaveKeysWithExpire, align 8, !tbaa !76
  %21 = getelementptr inbounds nuw %struct.dict, ptr %20, i32 0, i32 2
  %22 = getelementptr inbounds [2 x i64], ptr %21, i64 0, i64 1
  %23 = load i64, ptr %22, align 8, !tbaa !23
  %24 = add i64 %19, %23
  %25 = icmp eq i64 %24, 0
  br i1 %25, label %26, label %27

26:                                               ; preds = %15, %0
  br label %134

27:                                               ; preds = %15
  call void @llvm.lifetime.start.p0(i64 4, ptr %1) #8
  store i32 0, ptr %1, align 4, !tbaa !21
  call void @llvm.lifetime.start.p0(i64 4, ptr %2) #8
  store i32 0, ptr %2, align 4, !tbaa !21
  call void @llvm.lifetime.start.p0(i64 8, ptr %3) #8
  %28 = call i64 @mstime()
  store i64 %28, ptr %3, align 8, !tbaa !12
  br label %29

29:                                               ; preds = %132, %27
  br label %30

30:                                               ; preds = %29
  call void @llvm.lifetime.start.p0(i64 8, ptr %4) #8
  %31 = load ptr, ptr @slaveKeysWithExpire, align 8, !tbaa !76
  %32 = call ptr @dictGetRandomKey(ptr noundef %31)
  store ptr %32, ptr %4, align 8, !tbaa !10
  call void @llvm.lifetime.start.p0(i64 8, ptr %5) #8
  %33 = load ptr, ptr %4, align 8, !tbaa !10
  %34 = call ptr @dictGetKey(ptr noundef %33)
  store ptr %34, ptr %5, align 8, !tbaa !14
  call void @llvm.lifetime.start.p0(i64 8, ptr %6) #8
  %35 = load ptr, ptr %4, align 8, !tbaa !10
  %36 = call i64 @dictGetUnsignedIntegerVal(ptr noundef %35)
  store i64 %36, ptr %6, align 8, !tbaa !23
  call void @llvm.lifetime.start.p0(i64 8, ptr %7) #8
  store i64 0, ptr %7, align 8, !tbaa !23
  call void @llvm.lifetime.start.p0(i64 4, ptr %8) #8
  store i32 0, ptr %8, align 4, !tbaa !21
  br label %37

37:                                               ; preds = %86, %30
  %38 = load i64, ptr %6, align 8, !tbaa !23
  %39 = icmp ne i64 %38, 0
  br i1 %39, label %40, label %44

40:                                               ; preds = %37
  %41 = load i32, ptr %8, align 4, !tbaa !21
  %42 = load i32, ptr getelementptr inbounds nuw (%struct.redisServer, ptr @server, i32 0, i32 178), align 8, !tbaa !59
  %43 = icmp slt i32 %41, %42
  br label %44

44:                                               ; preds = %40, %37
  %45 = phi i1 [ false, %37 ], [ %43, %40 ]
  br i1 %45, label %46, label %91

46:                                               ; preds = %44
  %47 = load i64, ptr %6, align 8, !tbaa !23
  %48 = and i64 %47, 1
  %49 = icmp ne i64 %48, 0
  br i1 %49, label %50, label %86

50:                                               ; preds = %46
  call void @llvm.lifetime.start.p0(i64 8, ptr %9) #8
  %51 = load ptr, ptr getelementptr inbounds nuw (%struct.redisServer, ptr @server, i32 0, i32 10), align 8, !tbaa !62
  %52 = load i32, ptr %8, align 4, !tbaa !21
  %53 = sext i32 %52 to i64
  %54 = getelementptr inbounds %struct.redisDb, ptr %51, i64 %53
  store ptr %54, ptr %9, align 8, !tbaa !5
  call void @llvm.lifetime.start.p0(i64 8, ptr %10) #8
  %55 = load ptr, ptr %9, align 8, !tbaa !5
  %56 = load ptr, ptr %5, align 8, !tbaa !14
  %57 = call ptr @dbFindExpires(ptr noundef %55, ptr noundef %56)
  store ptr %57, ptr %10, align 8, !tbaa !10
  call void @llvm.lifetime.start.p0(i64 4, ptr %11) #8
  %58 = load ptr, ptr %10, align 8, !tbaa !10
  %59 = icmp ne ptr %58, null
  br i1 %59, label %60, label %69

60:                                               ; preds = %50
  %61 = load ptr, ptr getelementptr inbounds nuw (%struct.redisServer, ptr @server, i32 0, i32 10), align 8, !tbaa !62
  %62 = load i32, ptr %8, align 4, !tbaa !21
  %63 = sext i32 %62 to i64
  %64 = getelementptr inbounds %struct.redisDb, ptr %61, i64 %63
  %65 = load ptr, ptr %10, align 8, !tbaa !10
  %66 = load i64, ptr %3, align 8, !tbaa !12
  %67 = call i32 @activeExpireCycleTryExpire(ptr noundef %64, ptr noundef %65, i64 noundef %66)
  %68 = icmp ne i32 %67, 0
  br label %69

69:                                               ; preds = %60, %50
  %70 = phi i1 [ false, %50 ], [ %68, %60 ]
  %71 = zext i1 %70 to i32
  store i32 %71, ptr %11, align 4, !tbaa !21
  %72 = load ptr, ptr %10, align 8, !tbaa !10
  %73 = icmp ne ptr %72, null
  br i1 %73, label %74, label %85

74:                                               ; preds = %69
  %75 = load i32, ptr %11, align 4, !tbaa !21
  %76 = icmp ne i32 %75, 0
  br i1 %76, label %85, label %77

77:                                               ; preds = %74
  %78 = load i32, ptr %2, align 4, !tbaa !21
  %79 = add nsw i32 %78, 1
  store i32 %79, ptr %2, align 4, !tbaa !21
  %80 = load i32, ptr %8, align 4, !tbaa !21
  %81 = zext i32 %80 to i64
  %82 = shl i64 1, %81
  %83 = load i64, ptr %7, align 8, !tbaa !23
  %84 = or i64 %83, %82
  store i64 %84, ptr %7, align 8, !tbaa !23
  br label %85

85:                                               ; preds = %77, %74, %69
  call void @llvm.lifetime.end.p0(i64 4, ptr %11) #8
  call void @llvm.lifetime.end.p0(i64 8, ptr %10) #8
  call void @llvm.lifetime.end.p0(i64 8, ptr %9) #8
  br label %86

86:                                               ; preds = %85, %46
  %87 = load i32, ptr %8, align 4, !tbaa !21
  %88 = add nsw i32 %87, 1
  store i32 %88, ptr %8, align 4, !tbaa !21
  %89 = load i64, ptr %6, align 8, !tbaa !23
  %90 = lshr i64 %89, 1
  store i64 %90, ptr %6, align 8, !tbaa !23
  br label %37, !llvm.loop !77

91:                                               ; preds = %44
  %92 = load i64, ptr %7, align 8, !tbaa !23
  %93 = icmp ne i64 %92, 0
  br i1 %93, label %94, label %97

94:                                               ; preds = %91
  %95 = load ptr, ptr %4, align 8, !tbaa !10
  %96 = load i64, ptr %7, align 8, !tbaa !23
  call void @dictSetUnsignedIntegerVal(ptr noundef %95, i64 noundef %96)
  br label %101

97:                                               ; preds = %91
  %98 = load ptr, ptr @slaveKeysWithExpire, align 8, !tbaa !76
  %99 = load ptr, ptr %5, align 8, !tbaa !14
  %100 = call i32 @dictDelete(ptr noundef %98, ptr noundef %99)
  br label %101

101:                                              ; preds = %97, %94
  %102 = load i32, ptr %1, align 4, !tbaa !21
  %103 = add nsw i32 %102, 1
  store i32 %103, ptr %1, align 4, !tbaa !21
  %104 = load i32, ptr %2, align 4, !tbaa !21
  %105 = icmp sgt i32 %104, 3
  br i1 %105, label %106, label %107

106:                                              ; preds = %101
  store i32 3, ptr %12, align 4
  br label %130

107:                                              ; preds = %101
  %108 = load i32, ptr %1, align 4, !tbaa !21
  %109 = srem i32 %108, 64
  %110 = icmp eq i32 %109, 0
  br i1 %110, label %111, label %117

111:                                              ; preds = %107
  %112 = call i64 @mstime()
  %113 = load i64, ptr %3, align 8, !tbaa !12
  %114 = sub nsw i64 %112, %113
  %115 = icmp sgt i64 %114, 1
  br i1 %115, label %116, label %117

116:                                              ; preds = %111
  store i32 3, ptr %12, align 4
  br label %130

117:                                              ; preds = %111, %107
  %118 = load ptr, ptr @slaveKeysWithExpire, align 8, !tbaa !76
  %119 = getelementptr inbounds nuw %struct.dict, ptr %118, i32 0, i32 2
  %120 = getelementptr inbounds [2 x i64], ptr %119, i64 0, i64 0
  %121 = load i64, ptr %120, align 8, !tbaa !23
  %122 = load ptr, ptr @slaveKeysWithExpire, align 8, !tbaa !76
  %123 = getelementptr inbounds nuw %struct.dict, ptr %122, i32 0, i32 2
  %124 = getelementptr inbounds [2 x i64], ptr %123, i64 0, i64 1
  %125 = load i64, ptr %124, align 8, !tbaa !23
  %126 = add i64 %121, %125
  %127 = icmp eq i64 %126, 0
  br i1 %127, label %128, label %129

128:                                              ; preds = %117
  store i32 3, ptr %12, align 4
  br label %130

129:                                              ; preds = %117
  store i32 0, ptr %12, align 4
  br label %130

130:                                              ; preds = %129, %128, %116, %106
  call void @llvm.lifetime.end.p0(i64 4, ptr %8) #8
  call void @llvm.lifetime.end.p0(i64 8, ptr %7) #8
  call void @llvm.lifetime.end.p0(i64 8, ptr %6) #8
  call void @llvm.lifetime.end.p0(i64 8, ptr %5) #8
  call void @llvm.lifetime.end.p0(i64 8, ptr %4) #8
  %131 = load i32, ptr %12, align 4
  switch i32 %131, label %135 [
    i32 0, label %132
    i32 3, label %133
  ]

132:                                              ; preds = %130
  br label %29

133:                                              ; preds = %130
  call void @llvm.lifetime.end.p0(i64 8, ptr %3) #8
  call void @llvm.lifetime.end.p0(i64 4, ptr %2) #8
  call void @llvm.lifetime.end.p0(i64 4, ptr %1) #8
  br label %134

134:                                              ; preds = %133, %26
  ret void

135:                                              ; preds = %130
  unreachable
}