; Function Attrs: nounwind uwtable
define dso_local void @expireSlaveKeys() local_unnamed_addr #0 {
  %1 = load ptr, ptr @slaveKeysWithExpire, align 8, !tbaa !70
  %2 = icmp eq ptr %1, null
  br i1 %2, label %.thread, label %3

3:                                                ; preds = %0
  %4 = getelementptr inbounds nuw i8, ptr %1, i64 24
  %5 = load i64, ptr %4, align 8, !tbaa !12
  %6 = getelementptr inbounds nuw i8, ptr %1, i64 32
  %7 = load i64, ptr %6, align 8, !tbaa !12
  %8 = sub i64 0, %7
  %9 = icmp eq i64 %5, %8
  br i1 %9, label %.thread, label %10

10:                                               ; preds = %3
  %11 = tail call i64 @mstime() #10
  %.pre = load ptr, ptr @slaveKeysWithExpire, align 8, !tbaa !70
  br label %12

12:                                               ; preds = %79, %10
  %13 = phi ptr [ %.pre, %10 ], [ %80, %79 ]
  %.029 = phi i32 [ 0, %10 ], [ %.1.lcssa53, %79 ]
  %.028 = phi i32 [ 0, %10 ], [ %70, %79 ]
  %14 = tail call ptr @dictGetRandomKey(ptr noundef %13) #10
  %15 = tail call ptr @dictGetKey(ptr noundef %14) #10
  %16 = tail call i64 @dictGetUnsignedIntegerVal(ptr noundef %14) #10
  %17 = icmp ne i64 %16, 0
  %18 = load i32, ptr getelementptr inbounds nuw (i8, ptr @server, i64 6376), align 8
  %19 = icmp sgt i32 %18, 0
  %20 = select i1 %17, i1 %19, i1 false
  br i1 %20, label %.lr.ph, label %._crit_edge.thread

.lr.ph:                                           ; preds = %12, %59
  %21 = phi i32 [ %60, %59 ], [ %18, %12 ]
  %indvars.iv = phi i64 [ %indvars.iv.next, %59 ], [ 0, %12 ]
  %.144 = phi i32 [ %.2, %59 ], [ %.029, %12 ]
  %.03043 = phi i64 [ %61, %59 ], [ %16, %12 ]
  %.03241 = phi i64 [ %.133, %59 ], [ 0, %12 ]
  %22 = and i64 %.03043, 1
  %.not37 = icmp eq i64 %22, 0
  br i1 %.not37, label %59, label %23

23:                                               ; preds = %.lr.ph
  %24 = load ptr, ptr getelementptr inbounds nuw (i8, ptr @server, i64 64), align 8, !tbaa !56
  %25 = getelementptr inbounds nuw %struct.redisDb, ptr %24, i64 %indvars.iv
  %26 = tail call ptr @dbFindExpires(ptr noundef %25, ptr noundef %15) #10
  %.not38 = icmp ne ptr %26, null
  br i1 %.not38, label %27, label %activeExpireCycleTryExpire.exit

27:                                               ; preds = %23
  %28 = load ptr, ptr getelementptr inbounds nuw (i8, ptr @server, i64 64), align 8, !tbaa !56
  %29 = getelementptr inbounds nuw %struct.redisDb, ptr %28, i64 %indvars.iv
  %30 = tail call i64 @dictGetSignedIntegerVal(ptr noundef nonnull %26) #10
  %.not46 = icmp slt i64 %11, %30
  br i1 %.not46, label %activeExpireCycleTryExpire.exit, label %31

31:                                               ; preds = %27
  tail call void @enterExecutionUnit(i32 noundef 1, i64 noundef 0) #10
  %32 = tail call ptr @dictGetKey(ptr noundef nonnull %26) #10
  %33 = getelementptr inbounds i8, ptr %32, i64 -1
  %34 = load i8, ptr %33, align 1, !tbaa !5
  %35 = zext i8 %34 to i32
  %36 = and i32 %35, 7
  switch i32 %36, label %sdslen.exit.i [
    i32 0, label %37
    i32 1, label %40
    i32 2, label %44
    i32 3, label %48
    i32 4, label %52
  ]

37:                                               ; preds = %31
  %38 = lshr i32 %35, 3
  %39 = zext nneg i32 %38 to i64
  br label %sdslen.exit.i

40:                                               ; preds = %31
  %41 = getelementptr inbounds i8, ptr %32, i64 -3
  %42 = load i8, ptr %41, align 1, !tbaa !5
  %43 = zext i8 %42 to i64
  br label %sdslen.exit.i

44:                                               ; preds = %31
  %45 = getelementptr inbounds i8, ptr %32, i64 -5
  %46 = load i16, ptr %45, align 1, !tbaa !8
  %47 = zext i16 %46 to i64
  br label %sdslen.exit.i

48:                                               ; preds = %31
  %49 = getelementptr inbounds i8, ptr %32, i64 -9
  %50 = load i32, ptr %49, align 1, !tbaa !10
  %51 = zext i32 %50 to i64
  br label %sdslen.exit.i

52:                                               ; preds = %31
  %53 = getelementptr inbounds i8, ptr %32, i64 -17
  %54 = load i64, ptr %53, align 1, !tbaa !12
  br label %sdslen.exit.i

sdslen.exit.i:                                    ; preds = %52, %48, %44, %40, %37, %31
  %.0.i.i = phi i64 [ %54, %52 ], [ %51, %48 ], [ %47, %44 ], [ %43, %40 ], [ %39, %37 ], [ 0, %31 ]
  %55 = tail call ptr @createStringObject(ptr noundef nonnull %32, i64 noundef %.0.i.i) #10
  tail call void @deleteExpiredKeyAndPropagate(ptr noundef %29, ptr noundef %55) #10
  tail call void @decrRefCount(ptr noundef %55) #10
  tail call void @exitExecutionUnit() #10
  tail call void @postExecutionUnitOperations() #10
  br label %activeExpireCycleTryExpire.exit

activeExpireCycleTryExpire.exit:                  ; preds = %sdslen.exit.i, %27, %23
  %.not47 = phi i1 [ true, %23 ], [ true, %27 ], [ false, %sdslen.exit.i ]
  %or.cond.not = and i1 %.not38, %.not47
  %56 = shl nuw i64 1, %indvars.iv
  %57 = select i1 %or.cond.not, i64 %56, i64 0
  %.234 = or i64 %57, %.03241
  %58 = zext i1 %or.cond.not to i32
  %.3 = add nsw i32 %.144, %58
  %.pre49 = load i32, ptr getelementptr inbounds nuw (i8, ptr @server, i64 6376), align 8
  br label %59

59:                                               ; preds = %activeExpireCycleTryExpire.exit, %.lr.ph
  %60 = phi i32 [ %.pre49, %activeExpireCycleTryExpire.exit ], [ %21, %.lr.ph ]
  %.133 = phi i64 [ %.234, %activeExpireCycleTryExpire.exit ], [ %.03241, %.lr.ph ]
  %.2 = phi i32 [ %.3, %activeExpireCycleTryExpire.exit ], [ %.144, %.lr.ph ]
  %indvars.iv.next = add nuw nsw i64 %indvars.iv, 1
  %61 = lshr i64 %.03043, 1
  %62 = icmp ugt i64 %.03043, 1
  %63 = sext i32 %60 to i64
  %64 = icmp slt i64 %indvars.iv.next, %63
  %65 = select i1 %62, i1 %64, i1 false
  br i1 %65, label %.lr.ph, label %._crit_edge, !llvm.loop !71

._crit_edge:                                      ; preds = %59
  %.not = icmp eq i64 %.133, 0
  br i1 %.not, label %._crit_edge.thread, label %66

66:                                               ; preds = %._crit_edge
  tail call void @dictSetUnsignedIntegerVal(ptr noundef %14, i64 noundef %.133) #10
  br label %69

._crit_edge.thread:                               ; preds = %12, %._crit_edge
  %.1.lcssa54 = phi i32 [ %.2, %._crit_edge ], [ %.029, %12 ]
  %67 = load ptr, ptr @slaveKeysWithExpire, align 8, !tbaa !70
  %68 = tail call i32 @dictDelete(ptr noundef %67, ptr noundef %15) #10
  br label %69

69:                                               ; preds = %._crit_edge.thread, %66
  %.1.lcssa53 = phi i32 [ %.1.lcssa54, %._crit_edge.thread ], [ %.2, %66 ]
  %70 = add nuw nsw i32 %.028, 1
  %71 = icmp sgt i32 %.1.lcssa53, 3
  br i1 %71, label %.thread, label %72

72:                                               ; preds = %69
  %73 = and i32 %70, 63
  %74 = icmp eq i32 %73, 0
  br i1 %74, label %75, label %79

75:                                               ; preds = %72
  %76 = tail call i64 @mstime() #10
  %77 = sub nsw i64 %76, %11
  %78 = icmp sgt i64 %77, 1
  br i1 %78, label %.thread, label %79

79:                                               ; preds = %75, %72
  %80 = load ptr, ptr @slaveKeysWithExpire, align 8, !tbaa !70
  %81 = getelementptr inbounds nuw i8, ptr %80, i64 24
  %82 = load i64, ptr %81, align 8, !tbaa !12
  %83 = getelementptr inbounds nuw i8, ptr %80, i64 32
  %84 = load i64, ptr %83, align 8, !tbaa !12
  %85 = sub i64 0, %84
  %86 = icmp eq i64 %82, %85
  br i1 %86, label %.thread, label %12

.thread:                                          ; preds = %79, %75, %69, %0, %3
  ret void
}